target datalayout = "e-m:e-p270:32:32-p271:32:32-p272:64:64-i64:64-i128:128-f80:128-n8:16:32:64-S128"
target triple = "x86_64-pc-linux-gnu"

%struct.lxb_html_tree = type { ptr, ptr, ptr, ptr, ptr, ptr, ptr, %struct.lxb_html_tree_pending_table_t, ptr, i8, i8, i8, i8, i8, i8, ptr, ptr, ptr, i32, i64 }
%struct.lxb_html_tree_pending_table_t = type { ptr, i8 }
%struct.lexbor_array_t = type { ptr, i64, i64 }
%struct.lxb_dom_node = type { %struct.lxb_dom_event_target, i64, i64, i64, ptr, ptr, ptr, ptr, ptr, ptr, ptr, i32, i64 }
%struct.lxb_dom_event_target = type { ptr }
%struct.lxb_dom_element = type { %struct.lxb_dom_node, i64, i64, ptr, ptr, ptr, ptr, ptr, i32 }

; Function Attrs: inlinehint nounwind uwtable
define internal ptr @lexbor_array_get(ptr noundef %0, i64 noundef %1) #3 {
  %3 = alloca ptr, align 8
  %4 = alloca ptr, align 8
  %5 = alloca i64, align 8
  store ptr %0, ptr %4, align 8, !tbaa !9
  store i64 %1, ptr %5, align 8, !tbaa !50
  %6 = load i64, ptr %5, align 8, !tbaa !50
  %7 = load ptr, ptr %4, align 8, !tbaa !9
  %8 = getelementptr inbounds nuw %struct.lexbor_array_t, ptr %7, i32 0, i32 2
  %9 = load i64, ptr %8, align 8, !tbaa !49
  %10 = icmp uge i64 %6, %9
  br i1 %10, label %11, label %12

11:                                               ; preds = %2
  store ptr null, ptr %3, align 8
  br label %19

12:                                               ; preds = %2
  %13 = load ptr, ptr %4, align 8, !tbaa !9
  %14 = getelementptr inbounds nuw %struct.lexbor_array_t, ptr %13, i32 0, i32 0
  %15 = load ptr, ptr %14, align 8, !tbaa !45
  %16 = load i64, ptr %5, align 8, !tbaa !50
  %17 = getelementptr inbounds nuw ptr, ptr %15, i64 %16
  %18 = load ptr, ptr %17, align 8, !tbaa !9
  store ptr %18, ptr %3, align 8
  br label %19

19:                                               ; preds = %12, %11
  %20 = load ptr, ptr %3, align 8
  ret ptr %20
}

; Function Attrs: inlinehint nounwind uwtable
define internal ptr @lxb_html_tree_open_elements_first(ptr noundef %0) #3 {
  %2 = alloca ptr, align 8
  store ptr %0, ptr %2, align 8, !tbaa !4
  %3 = load ptr, ptr %2, align 8, !tbaa !4
  %4 = getelementptr inbounds nuw %struct.lxb_html_tree, ptr %3, i32 0, i32 4
  %5 = load ptr, ptr %4, align 8, !tbaa !44
  %6 = call ptr @lexbor_array_get(ptr noundef %5, i64 noundef 0)
  ret ptr %6
}

; Function Attrs: inlinehint nounwind uwtable
define internal zeroext i1 @lxb_html_tree_insertion_mode_in_body_html(ptr noundef %0, ptr noundef %1) #3 {
  %3 = alloca i1, align 1
  %4 = alloca ptr, align 8
  %5 = alloca ptr, align 8
  %6 = alloca ptr, align 8
  %7 = alloca ptr, align 8
  %8 = alloca i32, align 4
  store ptr %0, ptr %4, align 8, !tbaa !4
  store ptr %1, ptr %5, align 8, !tbaa !9
  call void @llvm.lifetime.start.p0(i64 8, ptr %6) #5
  call void @llvm.lifetime.start.p0(i64 8, ptr %7) #5
  %9 = load ptr, ptr %4, align 8, !tbaa !4
  %10 = load ptr, ptr %5, align 8, !tbaa !9
  call void @lxb_html_tree_parse_error(ptr noundef %9, ptr noundef %10, i32 noundef 0)
  %11 = load ptr, ptr %4, align 8, !tbaa !4
  %12 = call ptr @lxb_html_tree_open_elements_find(ptr noundef %11, i64 noundef 179, i64 noundef 2, ptr noundef null)
  store ptr %12, ptr %6, align 8, !tbaa !37
  %13 = load ptr, ptr %6, align 8, !tbaa !37
  %14 = icmp ne ptr %13, null
  br i1 %14, label %15, label %16

15:                                               ; preds = %2
  store i1 true, ptr %3, align 1
  store i32 1, ptr %8, align 4
  br label %37

16:                                               ; preds = %2
  %17 = load ptr, ptr %4, align 8, !tbaa !4
  %18 = call ptr @lxb_html_tree_open_elements_first(ptr noundef %17)
  store ptr %18, ptr %7, align 8, !tbaa !73
  %19 = load ptr, ptr %4, align 8, !tbaa !4
  %20 = load ptr, ptr %7, align 8, !tbaa !73
  %21 = load ptr, ptr %5, align 8, !tbaa !9
  %22 = load ptr, ptr %7, align 8, !tbaa !73
  %23 = getelementptr inbounds nuw %struct.lxb_dom_element, ptr %22, i32 0, i32 0
  %24 = getelementptr inbounds nuw %struct.lxb_dom_node, ptr %23, i32 0, i32 3
  %25 = load i64, ptr %24, align 8, !tbaa !74
  %26 = call i32 @lxb_html_tree_append_attributes(ptr noundef %19, ptr noundef %20, ptr noundef %21, i64 noundef %25)
  %27 = load ptr, ptr %4, align 8, !tbaa !4
  %28 = getelementptr inbounds nuw %struct.lxb_html_tree, ptr %27, i32 0, i32 18
  store i32 %26, ptr %28, align 8, !tbaa !25
  %29 = load ptr, ptr %4, align 8, !tbaa !4
  %30 = getelementptr inbounds nuw %struct.lxb_html_tree, ptr %29, i32 0, i32 18
  %31 = load i32, ptr %30, align 8, !tbaa !25
  %32 = icmp ne i32 %31, 0
  br i1 %32, label %33, label %36

33:                                               ; preds = %16
  %34 = load ptr, ptr %4, align 8, !tbaa !4
  %35 = call zeroext i1 @lxb_html_tree_process_abort(ptr noundef %34)
  store i1 %35, ptr %3, align 1
  store i32 1, ptr %8, align 4
  br label %37

36:                                               ; preds = %16
  store i1 true, ptr %3, align 1
  store i32 1, ptr %8, align 4
  br label %37

37:                                               ; preds = %36, %33, %15
  call void @llvm.lifetime.end.p0(i64 8, ptr %7) #5
  call void @llvm.lifetime.end.p0(i64 8, ptr %6) #5
  %38 = load i1, ptr %3, align 1
  ret i1 %38
}