; Function Attrs: inlinehint nounwind uwtable
define internal fastcc zeroext i1 @lxb_html_tree_insertion_mode_in_body_html(ptr noundef %0, ptr noundef %1) unnamed_addr #3 {
  tail call void @lxb_html_tree_parse_error(ptr noundef %0, ptr noundef %1, i32 noundef 0) #6
  %3 = tail call ptr @lxb_html_tree_open_elements_find(ptr noundef %0, i64 noundef 179, i64 noundef 2, ptr noundef null) #6
  %.not = icmp eq ptr %3, null
  br i1 %.not, label %lxb_html_tree_open_elements_first.exit, label %15

lxb_html_tree_open_elements_first.exit:           ; preds = %2
  %4 = getelementptr i8, ptr %0, i64 32
  %.val = load ptr, ptr %4, align 8, !tbaa !33
  %5 = getelementptr inbounds nuw i8, ptr %.val, i64 16
  %6 = load i64, ptr %5, align 8, !tbaa !34
  %.not.i.not.i = icmp ne i64 %6, 0
  tail call void @llvm.assume(i1 %.not.i.not.i)
  %7 = load ptr, ptr %.val, align 8, !tbaa !36
  %8 = load ptr, ptr %7, align 8, !tbaa !37
  %9 = getelementptr inbounds nuw i8, ptr %8, i64 24
  %10 = load i64, ptr %9, align 8, !tbaa !61
  %11 = tail call i32 @lxb_html_tree_append_attributes(ptr noundef nonnull %0, ptr noundef %8, ptr noundef %1, i64 noundef %10) #6
  %12 = getelementptr inbounds nuw i8, ptr %0, i64 112
  store i32 %11, ptr %12, align 8, !tbaa !22
  %.not13 = icmp eq i32 %11, 0
  br i1 %.not13, label %15, label %13

13:                                               ; preds = %lxb_html_tree_open_elements_first.exit
  %14 = tail call zeroext i1 @lxb_html_tree_process_abort(ptr noundef nonnull %0) #6
  br label %15

15:                                               ; preds = %lxb_html_tree_open_elements_first.exit, %2, %13
  %.0 = phi i1 [ %14, %13 ], [ true, %2 ], [ true, %lxb_html_tree_open_elements_first.exit ]
  ret i1 %.0
}